target datalayout = "e-m:e-p270:32:32-p271:32:32-p272:64:64-i64:64-f80:128-n8:16:32:64-S128"
target triple = "x86_64-pc-linux-gnu"

@.str = private unnamed_addr constant [3 x i8] c"%d\00", align 1
@.str.1 = private unnamed_addr constant [7 x i8] c"%d%d%d\00", align 1
@.str.2 = private unnamed_addr constant [28 x i8] c"(%d,%d,%d)-(%d,%d,%d)=%.2f\0A\00", align 1

; Function Attrs: noinline nounwind uwtable
define dso_local double @juli(i32 %0, i32 %1, i32 %2, i32 %3, i32 %4, i32 %5) #0 {
  %7 = alloca i32, align 4
  %8 = alloca i32, align 4
  %9 = alloca i32, align 4
  %10 = alloca i32, align 4
  %11 = alloca i32, align 4
  %12 = alloca i32, align 4
  %13 = alloca double, align 8
  store i32 %0, i32* %7, align 4
  store i32 %1, i32* %8, align 4
  store i32 %2, i32* %9, align 4
  store i32 %3, i32* %10, align 4
  store i32 %4, i32* %11, align 4
  store i32 %5, i32* %12, align 4
  %14 = load i32, i32* %7, align 4
  %15 = load i32, i32* %10, align 4
  %16 = sub nsw i32 %14, %15
  %17 = load i32, i32* %7, align 4
  %18 = load i32, i32* %10, align 4
  %19 = sub nsw i32 %17, %18
  %20 = mul nsw i32 %16, %19
  %21 = load i32, i32* %8, align 4
  %22 = load i32, i32* %11, align 4
  %23 = sub nsw i32 %21, %22
  %24 = load i32, i32* %8, align 4
  %25 = load i32, i32* %11, align 4
  %26 = sub nsw i32 %24, %25
  %27 = mul nsw i32 %23, %26
  %28 = add nsw i32 %20, %27
  %29 = load i32, i32* %9, align 4
  %30 = load i32, i32* %12, align 4
  %31 = sub nsw i32 %29, %30
  %32 = load i32, i32* %9, align 4
  %33 = load i32, i32* %12, align 4
  %34 = sub nsw i32 %32, %33
  %35 = mul nsw i32 %31, %34
  %36 = add nsw i32 %28, %35
  %37 = sitofp i32 %36 to double
  %38 = call double @sqrt(double %37) #3
  store double %38, double* %13, align 8
  %39 = load double, double* %13, align 8
  ret double %39
}

; Function Attrs: noinline nounwind uwtable
define dso_local i32 @main() #0 {
  %1 = alloca i32, align 4
  %2 = alloca [11 x i32], align 16
  %3 = alloca [11 x i32], align 16
  %4 = alloca [11 x i32], align 16
  %5 = alloca [50 x i32], align 16
  %6 = alloca [50 x i32], align 16
  %7 = alloca i32, align 4
  %8 = alloca [50 x double], align 16
  %9 = alloca double, align 8
  %10 = alloca i32, align 4
  %11 = alloca i32, align 4
  %12 = alloca i32, align 4
  %13 = alloca i32, align 4
  store i32 0, i32* %1, align 4
  store i32 0, i32* %13, align 4
  %14 = call i32 (i8*, ...) @__isoc99_scanf(i8* getelementptr inbounds ([3 x i8], [3 x i8]* @.str, i64 0, i64 0), i32* %10)
  store i32 0, i32* %11, align 4
  br label %15

15:                                               ; preds = %31, %0
  %16 = load i32, i32* %11, align 4
  %17 = load i32, i32* %10, align 4
  %18 = sub nsw i32 %17, 1
  %19 = icmp sle i32 %16, %18
  br i1 %19, label %20, label %34

20:                                               ; preds = %15
  %21 = load i32, i32* %11, align 4
  %22 = sext i32 %21 to i64
  %23 = getelementptr inbounds [11 x i32], [11 x i32]* %2, i64 0, i64 %22
  %24 = load i32, i32* %11, align 4
  %25 = sext i32 %24 to i64
  %26 = getelementptr inbounds [11 x i32], [11 x i32]* %3, i64 0, i64 %25
  %27 = load i32, i32* %11, align 4
  %28 = sext i32 %27 to i64
  %29 = getelementptr inbounds [11 x i32], [11 x i32]* %4, i64 0, i64 %28
  %30 = call i32 (i8*, ...) @__isoc99_scanf(i8* getelementptr inbounds ([7 x i8], [7 x i8]* @.str.1, i64 0, i64 0), i32* %23, i32* %26, i32* %29)
  br label %31

31:                                               ; preds = %20
  %32 = load i32, i32* %11, align 4
  %33 = add nsw i32 %32, 1
  store i32 %33, i32* %11, align 4
  br label %15

34:                                               ; preds = %15
  store i32 0, i32* %12, align 4
  br label %35

35:                                               ; preds = %94, %34
  %36 = load i32, i32* %12, align 4
  %37 = load i32, i32* %10, align 4
  %38 = sub nsw i32 %37, 2
  %39 = icmp sle i32 %36, %38
  br i1 %39, label %40, label %97

40:                                               ; preds = %35
  %41 = load i32, i32* %12, align 4
  store i32 %41, i32* %11, align 4
  br label %42

42:                                               ; preds = %90, %40
  %43 = load i32, i32* %11, align 4
  %44 = load i32, i32* %10, align 4
  %45 = sub nsw i32 %44, 2
  %46 = icmp sle i32 %43, %45
  br i1 %46, label %47, label %93

47:                                               ; preds = %42
  %48 = load i32, i32* %12, align 4
  %49 = sext i32 %48 to i64
  %50 = getelementptr inbounds [11 x i32], [11 x i32]* %2, i64 0, i64 %49
  %51 = load i32, i32* %50, align 4
  %52 = load i32, i32* %12, align 4
  %53 = sext i32 %52 to i64
  %54 = getelementptr inbounds [11 x i32], [11 x i32]* %3, i64 0, i64 %53
  %55 = load i32, i32* %54, align 4
  %56 = load i32, i32* %12, align 4
  %57 = sext i32 %56 to i64
  %58 = getelementptr inbounds [11 x i32], [11 x i32]* %4, i64 0, i64 %57
  %59 = load i32, i32* %58, align 4
  %60 = load i32, i32* %11, align 4
  %61 = add nsw i32 %60, 1
  %62 = sext i32 %61 to i64
  %63 = getelementptr inbounds [11 x i32], [11 x i32]* %2, i64 0, i64 %62
  %64 = load i32, i32* %63, align 4
  %65 = load i32, i32* %11, align 4
  %66 = add nsw i32 %65, 1
  %67 = sext i32 %66 to i64
  %68 = getelementptr inbounds [11 x i32], [11 x i32]* %3, i64 0, i64 %67
  %69 = load i32, i32* %68, align 4
  %70 = load i32, i32* %11, align 4
  %71 = add nsw i32 %70, 1
  %72 = sext i32 %71 to i64
  %73 = getelementptr inbounds [11 x i32], [11 x i32]* %4, i64 0, i64 %72
  %74 = load i32, i32* %73, align 4
  %75 = call double @juli(i32 %51, i32 %55, i32 %59, i32 %64, i32 %69, i32 %74)
  %76 = load i32, i32* %13, align 4
  %77 = sext i32 %76 to i64
  %78 = getelementptr inbounds [50 x double], [50 x double]* %8, i64 0, i64 %77
  store double %75, double* %78, align 8
  %79 = load i32, i32* %12, align 4
  %80 = load i32, i32* %13, align 4
  %81 = sext i32 %80 to i64
  %82 = getelementptr inbounds [50 x i32], [50 x i32]* %5, i64 0, i64 %81
  store i32 %79, i32* %82, align 4
  %83 = load i32, i32* %11, align 4
  %84 = add nsw i32 %83, 1
  %85 = load i32, i32* %13, align 4
  %86 = sext i32 %85 to i64
  %87 = getelementptr inbounds [50 x i32], [50 x i32]* %6, i64 0, i64 %86
  store i32 %84, i32* %87, align 4
  %88 = load i32, i32* %13, align 4
  %89 = add nsw i32 %88, 1
  store i32 %89, i32* %13, align 4
  br label %90

90:                                               ; preds = %47
  %91 = load i32, i32* %11, align 4
  %92 = add nsw i32 %91, 1
  store i32 %92, i32* %11, align 4
  br label %42

93:                                               ; preds = %42
  br label %94

94:                                               ; preds = %93
  %95 = load i32, i32* %12, align 4
  %96 = add nsw i32 %95, 1
  store i32 %96, i32* %12, align 4
  br label %35

97:                                               ; preds = %35
  store i32 0, i32* %11, align 4
  br label %98

98:                                               ; preds = %187, %97
  %99 = load i32, i32* %11, align 4
  %100 = load i32, i32* %10, align 4
  %101 = load i32, i32* %10, align 4
  %102 = sub nsw i32 %101, 1
  %103 = mul nsw i32 %100, %102
  %104 = sdiv i32 %103, 2
  %105 = sub nsw i32 %104, 2
  %106 = icmp sle i32 %99, %105
  br i1 %106, label %107, label %190

107:                                              ; preds = %98
  store i32 0, i32* %12, align 4
  br label %108

108:                                              ; preds = %183, %107
  %109 = load i32, i32* %12, align 4
  %110 = load i32, i32* %10, align 4
  %111 = load i32, i32* %10, align 4
  %112 = sub nsw i32 %111, 1
  %113 = mul nsw i32 %110, %112
  %114 = sdiv i32 %113, 2
  %115 = sub nsw i32 %114, 2
  %116 = load i32, i32* %11, align 4
  %117 = sub nsw i32 %115, %116
  %118 = icmp sle i32 %109, %117
  br i1 %118, label %119, label %186

119:                                              ; preds = %108
  %120 = load i32, i32* %12, align 4
  %121 = sext i32 %120 to i64
  %122 = getelementptr inbounds [50 x double], [50 x double]* %8, i64 0, i64 %121
  %123 = load double, double* %122, align 8
  %124 = load i32, i32* %12, align 4
  %125 = add nsw i32 %124, 1
  %126 = sext i32 %125 to i64
  %127 = getelementptr inbounds [50 x double], [50 x double]* %8, i64 0, i64 %126
  %128 = load double, double* %127, align 8
  %129 = fcmp olt double %123, %128
  br i1 %129, label %130, label %182

130:                                              ; preds = %119
  %131 = load i32, i32* %12, align 4
  %132 = sext i32 %131 to i64
  %133 = getelementptr inbounds [50 x double], [50 x double]* %8, i64 0, i64 %132
  %134 = load double, double* %133, align 8
  store double %134, double* %9, align 8
  %135 = load i32, i32* %12, align 4
  %136 = add nsw i32 %135, 1
  %137 = sext i32 %136 to i64
  %138 = getelementptr inbounds [50 x double], [50 x double]* %8, i64 0, i64 %137
  %139 = load double, double* %138, align 8
  %140 = load i32, i32* %12, align 4
  %141 = sext i32 %140 to i64
  %142 = getelementptr inbounds [50 x double], [50 x double]* %8, i64 0, i64 %141
  store double %139, double* %142, align 8
  %143 = load double, double* %9, align 8
  %144 = load i32, i32* %12, align 4
  %145 = add nsw i32 %144, 1
  %146 = sext i32 %145 to i64
  %147 = getelementptr inbounds [50 x double], [50 x double]* %8, i64 0, i64 %146
  store double %143, double* %147, align 8
  %148 = load i32, i32* %12, align 4
  %149 = sext i32 %148 to i64
  %150 = getelementptr inbounds [50 x i32], [50 x i32]* %5, i64 0, i64 %149
  %151 = load i32, i32* %150, align 4
  store i32 %151, i32* %7, align 4
  %152 = load i32, i32* %12, align 4
  %153 = add nsw i32 %152, 1
  %154 = sext i32 %153 to i64
  %155 = getelementptr inbounds [50 x i32], [50 x i32]* %5, i64 0, i64 %154
  %156 = load i32, i32* %155, align 4
  %157 = load i32, i32* %12, align 4
  %158 = sext i32 %157 to i64
  %159 = getelementptr inbounds [50 x i32], [50 x i32]* %5, i64 0, i64 %158
  store i32 %156, i32* %159, align 4
  %160 = load i32, i32* %7, align 4
  %161 = load i32, i32* %12, align 4
  %162 = add nsw i32 %161, 1
  %163 = sext i32 %162 to i64
  %164 = getelementptr inbounds [50 x i32], [50 x i32]* %5, i64 0, i64 %163
  store i32 %160, i32* %164, align 4
  %165 = load i32, i32* %12, align 4
  %166 = sext i32 %165 to i64
  %167 = getelementptr inbounds [50 x i32], [50 x i32]* %6, i64 0, i64 %166
  %168 = load i32, i32* %167, align 4
  store i32 %168, i32* %7, align 4
  %169 = load i32, i32* %12, align 4
  %170 = add nsw i32 %169, 1
  %171 = sext i32 %170 to i64
  %172 = getelementptr inbounds [50 x i32], [50 x i32]* %6, i64 0, i64 %171
  %173 = load i32, i32* %172, align 4
  %174 = load i32, i32* %12, align 4
  %175 = sext i32 %174 to i64
  %176 = getelementptr inbounds [50 x i32], [50 x i32]* %6, i64 0, i64 %175
  store i32 %173, i32* %176, align 4
  %177 = load i32, i32* %7, align 4
  %178 = load i32, i32* %12, align 4
  %179 = add nsw i32 %178, 1
  %180 = sext i32 %179 to i64
  %181 = getelementptr inbounds [50 x i32], [50 x i32]* %6, i64 0, i64 %180
  store i32 %177, i32* %181, align 4
  br label %182

182:                                              ; preds = %130, %119
  br label %183

183:                                              ; preds = %182
  %184 = load i32, i32* %12, align 4
  %185 = add nsw i32 %184, 1
  store i32 %185, i32* %12, align 4
  br label %108

186:                                              ; preds = %108
  br label %187

187:                                              ; preds = %186
  %188 = load i32, i32* %11, align 4
  %189 = add nsw i32 %188, 1
  store i32 %189, i32* %11, align 4
  br label %98

190:                                              ; preds = %98
  store i32 0, i32* %11, align 4
  br label %191

191:                                              ; preds = %248, %190
  %192 = load i32, i32* %11, align 4
  %193 = load i32, i32* %10, align 4
  %194 = load i32, i32* %10, align 4
  %195 = sub nsw i32 %194, 1
  %196 = mul nsw i32 %193, %195
  %197 = sdiv i32 %196, 2
  %198 = sub nsw i32 %197, 1
  %199 = icmp sle i32 %192, %198
  br i1 %199, label %200, label %251

200:                                              ; preds = %191
  %201 = load i32, i32* %11, align 4
  %202 = sext i32 %201 to i64
  %203 = getelementptr inbounds [50 x i32], [50 x i32]* %5, i64 0, i64 %202
  %204 = load i32, i32* %203, align 4
  %205 = sext i32 %204 to i64
  %206 = getelementptr inbounds [11 x i32], [11 x i32]* %2, i64 0, i64 %205
  %207 = load i32, i32* %206, align 4
  %208 = load i32, i32* %11, align 4
  %209 = sext i32 %208 to i64
  %210 = getelementptr inbounds [50 x i32], [50 x i32]* %5, i64 0, i64 %209
  %211 = load i32, i32* %210, align 4
  %212 = sext i32 %211 to i64
  %213 = getelementptr inbounds [11 x i32], [11 x i32]* %3, i64 0, i64 %212
  %214 = load i32, i32* %213, align 4
  %215 = load i32, i32* %11, align 4
  %216 = sext i32 %215 to i64
  %217 = getelementptr inbounds [50 x i32], [50 x i32]* %5, i64 0, i64 %216
  %218 = load i32, i32* %217, align 4
  %219 = sext i32 %218 to i64
  %220 = getelementptr inbounds [11 x i32], [11 x i32]* %4, i64 0, i64 %219
  %221 = load i32, i32* %220, align 4
  %222 = load i32, i32* %11, align 4
  %223 = sext i32 %222 to i64
  %224 = getelementptr inbounds [50 x i32], [50 x i32]* %6, i64 0, i64 %223
  %225 = load i32, i32* %224, align 4
  %226 = sext i32 %225 to i64
  %227 = getelementptr inbounds [11 x i32], [11 x i32]* %2, i64 0, i64 %226
  %228 = load i32, i32* %227, align 4
  %229 = load i32, i32* %11, align 4
  %230 = sext i32 %229 to i64
  %231 = getelementptr inbounds [50 x i32], [50 x i32]* %6, i64 0, i64 %230
  %232 = load i32, i32* %231, align 4
  %233 = sext i32 %232 to i64
  %234 = getelementptr inbounds [11 x i32], [11 x i32]* %3, i64 0, i64 %233
  %235 = load i32, i32* %234, align 4
  %236 = load i32, i32* %11, align 4
  %237 = sext i32 %236 to i64
  %238 = getelementptr inbounds [50 x i32], [50 x i32]* %6, i64 0, i64 %237
  %239 = load i32, i32* %238, align 4
  %240 = sext i32 %239 to i64
  %241 = getelementptr inbounds [11 x i32], [11 x i32]* %4, i64 0, i64 %240
  %242 = load i32, i32* %241, align 4
  %243 = load i32, i32* %11, align 4
  %244 = sext i32 %243 to i64
  %245 = getelementptr inbounds [50 x double], [50 x double]* %8, i64 0, i64 %244
  %246 = load double, double* %245, align 8
  %247 = call i32 (i8*, ...) @printf(i8* getelementptr inbounds ([28 x i8], [28 x i8]* @.str.2, i64 0, i64 0), i32 %207, i32 %214, i32 %221, i32 %228, i32 %235, i32 %242, double %246)
  br label %248

248:                                              ; preds = %200
  %249 = load i32, i32* %11, align 4
  %250 = add nsw i32 %249, 1
  store i32 %250, i32* %11, align 4
  br label %191

251:                                              ; preds = %191
  ret i32 0
}